target datalayout = "e-m:e-p270:32:32-p271:32:32-p272:64:64-i64:64-i128:128-f80:128-n8:16:32:64-S128"
target triple = "x86_64-pc-linux-gnu"

%struct.timeval = type { i64, i64 }
%struct.__va_list_tag = type { i32, i32, ptr, ptr }
%struct._logentry = type { i32, i8, i16, i64, %struct.timeval, i32, [0 x %union.anon] }
%union.anon = type { i8 }
%struct.logentry_item_get = type { i8, i8, i8, i32, i32, [0 x i8] }

; Function Attrs: nounwind uwtable
define internal void @_logger_log_item_get(ptr noundef %0, ptr noundef %1, ptr noundef %2, ptr noundef %3) #0 {
  %5 = alloca ptr, align 8
  %6 = alloca ptr, align 8
  %7 = alloca ptr, align 8
  %8 = alloca ptr, align 8
  %9 = alloca i32, align 4
  %10 = alloca ptr, align 8
  %11 = alloca i32, align 4
  %12 = alloca i32, align 4
  %13 = alloca i8, align 1
  %14 = alloca i32, align 4
  %15 = alloca ptr, align 8
  store ptr %0, ptr %5, align 8, !tbaa !33
  store ptr %1, ptr %6, align 8, !tbaa !30
  store ptr %2, ptr %7, align 8, !tbaa !28
  store ptr %3, ptr %8, align 8, !tbaa !105
  call void @llvm.lifetime.start.p0(i64 4, ptr %9) #11
  %16 = load ptr, ptr %8, align 8, !tbaa !105
  %17 = getelementptr inbounds nuw %struct.__va_list_tag, ptr %16, i32 0, i32 0
  %18 = load i32, ptr %17, align 8
  %19 = icmp ule i32 %18, 40
  br i1 %19, label %20, label %25

20:                                               ; preds = %4
  %21 = getelementptr inbounds nuw %struct.__va_list_tag, ptr %16, i32 0, i32 3
  %22 = load ptr, ptr %21, align 8
  %23 = getelementptr i8, ptr %22, i32 %18
  %24 = add i32 %18, 8
  store i32 %24, ptr %17, align 8
  br label %29

25:                                               ; preds = %4
  %26 = getelementptr inbounds nuw %struct.__va_list_tag, ptr %16, i32 0, i32 2
  %27 = load ptr, ptr %26, align 8
  %28 = getelementptr i8, ptr %27, i32 8
  store ptr %28, ptr %26, align 8
  br label %29

29:                                               ; preds = %25, %20
  %30 = phi ptr [ %23, %20 ], [ %27, %25 ]
  %31 = load i32, ptr %30, align 4, !tbaa !11
  store i32 %31, ptr %9, align 4, !tbaa !11
  call void @llvm.lifetime.start.p0(i64 8, ptr %10) #11
  %32 = load ptr, ptr %8, align 8, !tbaa !105
  %33 = getelementptr inbounds nuw %struct.__va_list_tag, ptr %32, i32 0, i32 0
  %34 = load i32, ptr %33, align 8
  %35 = icmp ule i32 %34, 40
  br i1 %35, label %36, label %41

36:                                               ; preds = %29
  %37 = getelementptr inbounds nuw %struct.__va_list_tag, ptr %32, i32 0, i32 3
  %38 = load ptr, ptr %37, align 8
  %39 = getelementptr i8, ptr %38, i32 %34
  %40 = add i32 %34, 8
  store i32 %40, ptr %33, align 8
  br label %45

41:                                               ; preds = %29
  %42 = getelementptr inbounds nuw %struct.__va_list_tag, ptr %32, i32 0, i32 2
  %43 = load ptr, ptr %42, align 8
  %44 = getelementptr i8, ptr %43, i32 8
  store ptr %44, ptr %42, align 8
  br label %45

45:                                               ; preds = %41, %36
  %46 = phi ptr [ %39, %36 ], [ %43, %41 ]
  %47 = load ptr, ptr %46, align 8, !tbaa !63
  store ptr %47, ptr %10, align 8, !tbaa !63
  call void @llvm.lifetime.start.p0(i64 4, ptr %11) #11
  %48 = load ptr, ptr %8, align 8, !tbaa !105
  %49 = getelementptr inbounds nuw %struct.__va_list_tag, ptr %48, i32 0, i32 0
  %50 = load i32, ptr %49, align 8
  %51 = icmp ule i32 %50, 40
  br i1 %51, label %52, label %57

52:                                               ; preds = %45
  %53 = getelementptr inbounds nuw %struct.__va_list_tag, ptr %48, i32 0, i32 3
  %54 = load ptr, ptr %53, align 8
  %55 = getelementptr i8, ptr %54, i32 %50
  %56 = add i32 %50, 8
  store i32 %56, ptr %49, align 8
  br label %61

57:                                               ; preds = %45
  %58 = getelementptr inbounds nuw %struct.__va_list_tag, ptr %48, i32 0, i32 2
  %59 = load ptr, ptr %58, align 8
  %60 = getelementptr i8, ptr %59, i32 8
  store ptr %60, ptr %58, align 8
  br label %61

61:                                               ; preds = %57, %52
  %62 = phi ptr [ %55, %52 ], [ %59, %57 ]
  %63 = load i32, ptr %62, align 4, !tbaa !11
  store i32 %63, ptr %11, align 4, !tbaa !11
  call void @llvm.lifetime.start.p0(i64 4, ptr %12) #11
  %64 = load ptr, ptr %8, align 8, !tbaa !105
  %65 = getelementptr inbounds nuw %struct.__va_list_tag, ptr %64, i32 0, i32 0
  %66 = load i32, ptr %65, align 8
  %67 = icmp ule i32 %66, 40
  br i1 %67, label %68, label %73

68:                                               ; preds = %61
  %69 = getelementptr inbounds nuw %struct.__va_list_tag, ptr %64, i32 0, i32 3
  %70 = load ptr, ptr %69, align 8
  %71 = getelementptr i8, ptr %70, i32 %66
  %72 = add i32 %66, 8
  store i32 %72, ptr %65, align 8
  br label %77

73:                                               ; preds = %61
  %74 = getelementptr inbounds nuw %struct.__va_list_tag, ptr %64, i32 0, i32 2
  %75 = load ptr, ptr %74, align 8
  %76 = getelementptr i8, ptr %75, i32 8
  store ptr %76, ptr %74, align 8
  br label %77

77:                                               ; preds = %73, %68
  %78 = phi ptr [ %71, %68 ], [ %75, %73 ]
  %79 = load i32, ptr %78, align 4, !tbaa !11
  store i32 %79, ptr %12, align 4, !tbaa !11
  call void @llvm.lifetime.start.p0(i64 1, ptr %13) #11
  %80 = load ptr, ptr %8, align 8, !tbaa !105
  %81 = getelementptr inbounds nuw %struct.__va_list_tag, ptr %80, i32 0, i32 0
  %82 = load i32, ptr %81, align 8
  %83 = icmp ule i32 %82, 40
  br i1 %83, label %84, label %89

84:                                               ; preds = %77
  %85 = getelementptr inbounds nuw %struct.__va_list_tag, ptr %80, i32 0, i32 3
  %86 = load ptr, ptr %85, align 8
  %87 = getelementptr i8, ptr %86, i32 %82
  %88 = add i32 %82, 8
  store i32 %88, ptr %81, align 8
  br label %93

89:                                               ; preds = %77
  %90 = getelementptr inbounds nuw %struct.__va_list_tag, ptr %80, i32 0, i32 2
  %91 = load ptr, ptr %90, align 8
  %92 = getelementptr i8, ptr %91, i32 8
  store ptr %92, ptr %90, align 8
  br label %93

93:                                               ; preds = %89, %84
  %94 = phi ptr [ %87, %84 ], [ %91, %89 ]
  %95 = load i32, ptr %94, align 4, !tbaa !11
  %96 = trunc i32 %95 to i8
  store i8 %96, ptr %13, align 1, !tbaa !36
  call void @llvm.lifetime.start.p0(i64 4, ptr %14) #11
  %97 = load ptr, ptr %8, align 8, !tbaa !105
  %98 = getelementptr inbounds nuw %struct.__va_list_tag, ptr %97, i32 0, i32 0
  %99 = load i32, ptr %98, align 8
  %100 = icmp ule i32 %99, 40
  br i1 %100, label %101, label %106

101:                                              ; preds = %93
  %102 = getelementptr inbounds nuw %struct.__va_list_tag, ptr %97, i32 0, i32 3
  %103 = load ptr, ptr %102, align 8
  %104 = getelementptr i8, ptr %103, i32 %99
  %105 = add i32 %99, 8
  store i32 %105, ptr %98, align 8
  br label %110

106:                                              ; preds = %93
  %107 = getelementptr inbounds nuw %struct.__va_list_tag, ptr %97, i32 0, i32 2
  %108 = load ptr, ptr %107, align 8
  %109 = getelementptr i8, ptr %108, i32 8
  store ptr %109, ptr %107, align 8
  br label %110

110:                                              ; preds = %106, %101
  %111 = phi ptr [ %104, %101 ], [ %108, %106 ]
  %112 = load i32, ptr %111, align 4, !tbaa !11
  store i32 %112, ptr %14, align 4, !tbaa !11
  call void @llvm.lifetime.start.p0(i64 8, ptr %15) #11
  %113 = load ptr, ptr %5, align 8, !tbaa !33
  %114 = getelementptr inbounds nuw %struct._logentry, ptr %113, i32 0, i32 6
  %115 = getelementptr inbounds [0 x %union.anon], ptr %114, i64 0, i64 0
  store ptr %115, ptr %15, align 8, !tbaa !116
  %116 = load i32, ptr %9, align 4, !tbaa !11
  %117 = trunc i32 %116 to i8
  %118 = load ptr, ptr %15, align 8, !tbaa !116
  %119 = getelementptr inbounds nuw %struct.logentry_item_get, ptr %118, i32 0, i32 0
  store i8 %117, ptr %119, align 4, !tbaa !36
  %120 = load i32, ptr %11, align 4, !tbaa !11
  %121 = trunc i32 %120 to i8
  %122 = load ptr, ptr %15, align 8, !tbaa !116
  %123 = getelementptr inbounds nuw %struct.logentry_item_get, ptr %122, i32 0, i32 1
  store i8 %121, ptr %123, align 1, !tbaa !36
  %124 = load i32, ptr %12, align 4, !tbaa !11
  %125 = load ptr, ptr %15, align 8, !tbaa !116
  %126 = getelementptr inbounds nuw %struct.logentry_item_get, ptr %125, i32 0, i32 3
  store i32 %124, ptr %126, align 4, !tbaa !11
  %127 = load i8, ptr %13, align 1, !tbaa !36
  %128 = load ptr, ptr %15, align 8, !tbaa !116
  %129 = getelementptr inbounds nuw %struct.logentry_item_get, ptr %128, i32 0, i32 2
  store i8 %127, ptr %129, align 2, !tbaa !36
  %130 = load ptr, ptr %15, align 8, !tbaa !116
  %131 = getelementptr inbounds nuw %struct.logentry_item_get, ptr %130, i32 0, i32 5
  %132 = getelementptr inbounds [0 x i8], ptr %131, i64 0, i64 0
  %133 = load ptr, ptr %10, align 8, !tbaa !63
  %134 = load i32, ptr %11, align 4, !tbaa !11
  %135 = sext i32 %134 to i64
  call void @llvm.memcpy.p0.p0.i64(ptr align 4 %132, ptr align 1 %133, i64 %135, i1 false)
  %136 = load i32, ptr %14, align 4, !tbaa !11
  %137 = load ptr, ptr %15, align 8, !tbaa !116
  %138 = getelementptr inbounds nuw %struct.logentry_item_get, ptr %137, i32 0, i32 4
  store i32 %136, ptr %138, align 4, !tbaa !11
  %139 = load i32, ptr %11, align 4, !tbaa !11
  %140 = sext i32 %139 to i64
  %141 = add i64 12, %140
  %142 = trunc i64 %141 to i32
  %143 = load ptr, ptr %5, align 8, !tbaa !33
  %144 = getelementptr inbounds nuw %struct._logentry, ptr %143, i32 0, i32 5
  store i32 %142, ptr %144, align 8, !tbaa !11
  call void @llvm.lifetime.end.p0(i64 8, ptr %15) #11
  call void @llvm.lifetime.end.p0(i64 4, ptr %14) #11
  call void @llvm.lifetime.end.p0(i64 1, ptr %13) #11
  call void @llvm.lifetime.end.p0(i64 4, ptr %12) #11
  call void @llvm.lifetime.end.p0(i64 4, ptr %11) #11
  call void @llvm.lifetime.end.p0(i64 8, ptr %10) #11
  call void @llvm.lifetime.end.p0(i64 4, ptr %9) #11
  ret void
}