; Function Attrs: mustprogress nofree norecurse nosync nounwind willreturn memory(readwrite, inaccessiblemem: none) uwtable
define internal void @_logger_log_item_get(ptr noundef writeonly captures(none) initializes((32, 39), (40, 48)) %0, ptr readnone captures(none) %1, ptr readnone captures(none) %2, ptr noundef captures(none) %3) #14 {
  %5 = load i32, ptr %3, align 8
  %6 = icmp ult i32 %5, 41
  br i1 %6, label %11, label %.thread

.thread:                                          ; preds = %4
  %7 = getelementptr inbounds nuw i8, ptr %3, i64 8
  %8 = load ptr, ptr %7, align 8
  %9 = getelementptr i8, ptr %8, i64 8
  store ptr %9, ptr %7, align 8
  %10 = load i32, ptr %8, align 4, !tbaa !9
  br label %.thread32

11:                                               ; preds = %4
  %12 = getelementptr inbounds nuw i8, ptr %3, i64 16
  %13 = load ptr, ptr %12, align 8
  %14 = zext nneg i32 %5 to i64
  %15 = getelementptr i8, ptr %13, i64 %14
  %16 = add nuw nsw i32 %5, 8
  store i32 %16, ptr %3, align 8
  %17 = load i32, ptr %15, align 4, !tbaa !9
  %18 = icmp ult i32 %5, 33
  br i1 %18, label %24, label %.thread32

.thread32:                                        ; preds = %11, %.thread
  %19 = phi i32 [ %10, %.thread ], [ %17, %11 ]
  %20 = getelementptr inbounds nuw i8, ptr %3, i64 8
  %21 = load ptr, ptr %20, align 8
  %22 = getelementptr i8, ptr %21, i64 8
  store ptr %22, ptr %20, align 8
  %23 = load ptr, ptr %21, align 8, !tbaa !95
  br label %.thread35

24:                                               ; preds = %11
  %25 = getelementptr inbounds nuw i8, ptr %3, i64 16
  %26 = load ptr, ptr %25, align 8
  %27 = zext nneg i32 %16 to i64
  %28 = getelementptr i8, ptr %26, i64 %27
  %29 = add nuw nsw i32 %5, 16
  store i32 %29, ptr %3, align 8
  %30 = load ptr, ptr %28, align 8, !tbaa !95
  %31 = icmp ult i32 %5, 25
  br i1 %31, label %38, label %.thread35

.thread35:                                        ; preds = %24, %.thread32
  %32 = phi ptr [ %23, %.thread32 ], [ %30, %24 ]
  %33 = phi i32 [ %19, %.thread32 ], [ %17, %24 ]
  %34 = getelementptr inbounds nuw i8, ptr %3, i64 8
  %35 = load ptr, ptr %34, align 8
  %36 = getelementptr i8, ptr %35, i64 8
  store ptr %36, ptr %34, align 8
  %37 = load i32, ptr %35, align 4, !tbaa !9
  br label %.thread38

38:                                               ; preds = %24
  %39 = getelementptr inbounds nuw i8, ptr %3, i64 16
  %40 = load ptr, ptr %39, align 8
  %41 = zext nneg i32 %29 to i64
  %42 = getelementptr i8, ptr %40, i64 %41
  %43 = add nuw nsw i32 %5, 24
  store i32 %43, ptr %3, align 8
  %44 = load i32, ptr %42, align 4, !tbaa !9
  %45 = icmp ult i32 %5, 17
  br i1 %45, label %53, label %.thread38

.thread38:                                        ; preds = %38, %.thread35
  %46 = phi i32 [ %37, %.thread35 ], [ %44, %38 ]
  %47 = phi i32 [ %33, %.thread35 ], [ %17, %38 ]
  %48 = phi ptr [ %32, %.thread35 ], [ %30, %38 ]
  %49 = getelementptr inbounds nuw i8, ptr %3, i64 8
  %50 = load ptr, ptr %49, align 8
  %51 = getelementptr i8, ptr %50, i64 8
  store ptr %51, ptr %49, align 8
  %52 = load i32, ptr %50, align 4, !tbaa !9
  br label %.thread41

53:                                               ; preds = %38
  %54 = getelementptr inbounds nuw i8, ptr %3, i64 16
  %55 = load ptr, ptr %54, align 8
  %56 = zext nneg i32 %43 to i64
  %57 = getelementptr i8, ptr %55, i64 %56
  %58 = or disjoint i32 %5, 32
  store i32 %58, ptr %3, align 8
  %59 = load i32, ptr %57, align 4, !tbaa !9
  %60 = icmp samesign ult i32 %58, 41
  br i1 %60, label %69, label %.thread41

.thread41:                                        ; preds = %53, %.thread38
  %61 = phi i32 [ %52, %.thread38 ], [ %59, %53 ]
  %62 = phi ptr [ %48, %.thread38 ], [ %30, %53 ]
  %63 = phi i32 [ %47, %.thread38 ], [ %17, %53 ]
  %64 = phi i32 [ %46, %.thread38 ], [ %44, %53 ]
  %65 = getelementptr inbounds nuw i8, ptr %3, i64 8
  %66 = load ptr, ptr %65, align 8
  %67 = getelementptr i8, ptr %66, i64 8
  store ptr %67, ptr %65, align 8
  %68 = load i32, ptr %66, align 4, !tbaa !9
  br label %82

69:                                               ; preds = %53
  %70 = getelementptr inbounds nuw i8, ptr %3, i64 16
  %71 = load ptr, ptr %70, align 8
  %72 = zext nneg i32 %58 to i64
  %73 = getelementptr i8, ptr %71, i64 %72
  %74 = add nuw nsw i32 %5, 40
  store i32 %74, ptr %3, align 8
  %75 = load i32, ptr %73, align 4, !tbaa !9
  %76 = icmp eq i32 %5, 0
  br i1 %76, label %77, label %82

77:                                               ; preds = %69
  %78 = getelementptr inbounds nuw i8, ptr %3, i64 16
  %79 = load ptr, ptr %78, align 8
  %80 = zext nneg i32 %74 to i64
  %81 = getelementptr i8, ptr %79, i64 %80
  store i32 48, ptr %3, align 8
  br label %91

82:                                               ; preds = %.thread41, %69
  %83 = phi i32 [ %68, %.thread41 ], [ %75, %69 ]
  %84 = phi i32 [ %64, %.thread41 ], [ %44, %69 ]
  %85 = phi i32 [ %63, %.thread41 ], [ %17, %69 ]
  %86 = phi ptr [ %62, %.thread41 ], [ %30, %69 ]
  %87 = phi i32 [ %61, %.thread41 ], [ %59, %69 ]
  %88 = getelementptr inbounds nuw i8, ptr %3, i64 8
  %89 = load ptr, ptr %88, align 8
  %90 = getelementptr i8, ptr %89, i64 8
  store ptr %90, ptr %88, align 8
  br label %91

91:                                               ; preds = %82, %77
  %92 = phi i32 [ %75, %77 ], [ %83, %82 ]
  %93 = phi i32 [ %44, %77 ], [ %84, %82 ]
  %94 = phi i32 [ %17, %77 ], [ %85, %82 ]
  %95 = phi ptr [ %30, %77 ], [ %86, %82 ]
  %96 = phi i32 [ %59, %77 ], [ %87, %82 ]
  %97 = phi ptr [ %81, %77 ], [ %89, %82 ]
  %98 = trunc i32 %92 to i8
  %99 = load i32, ptr %97, align 4, !tbaa !9
  %100 = getelementptr inbounds nuw i8, ptr %0, i64 36
  %101 = trunc i32 %94 to i8
  store i8 %101, ptr %100, align 4, !tbaa !31
  %102 = trunc i32 %93 to i8
  %103 = getelementptr inbounds nuw i8, ptr %0, i64 37
  store i8 %102, ptr %103, align 1, !tbaa !31
  %104 = getelementptr inbounds nuw i8, ptr %0, i64 40
  store i32 %96, ptr %104, align 4, !tbaa !9
  %105 = getelementptr inbounds nuw i8, ptr %0, i64 38
  store i8 %98, ptr %105, align 2, !tbaa !31
  %106 = getelementptr inbounds nuw i8, ptr %0, i64 48
  %107 = sext i32 %93 to i64
  tail call void @llvm.memcpy.p0.p0.i64(ptr nonnull align 4 %106, ptr align 1 %95, i64 %107, i1 false)
  %108 = getelementptr inbounds nuw i8, ptr %0, i64 44
  store i32 %99, ptr %108, align 4, !tbaa !9
  %109 = add i32 %93, 12
  %110 = getelementptr inbounds nuw i8, ptr %0, i64 32
  store i32 %109, ptr %110, align 8, !tbaa !9
  ret void
}